; Function Attrs: mustprogress nounwind uwtable
define hidden void @_ZN22SystemDictionaryShared19update_shared_entryEP13InstanceKlassi(ptr noundef %0, i32 noundef %1) local_unnamed_addr #0 align 2 {
  %3 = load ptr, ptr @DumpTimeTable_lock, align 8
  %.not.i.i.i = icmp eq ptr %3, null
  br i1 %.not.i.i.i, label %_ZN11MutexLockerC2EP5MutexNS0_18SafepointCheckFlagE.exit.thread.i, label %6

_ZN11MutexLockerC2EP5MutexNS0_18SafepointCheckFlagE.exit.thread.i: ; preds = %2
  %4 = load ptr, ptr @_ZN22SystemDictionaryShared15_dumptime_tableE, align 8
  %5 = tail call noundef ptr @_ZN24DumpTimeSharedClassTable8get_infoEP13InstanceKlass(ptr noundef nonnull align 8 dereferenceable(127124) %4, ptr noundef %0) #18
  br label %_ZN22SystemDictionaryShared8get_infoEP13InstanceKlass.exit

6:                                                ; preds = %2
  tail call void @_ZN5Mutex28lock_without_safepoint_checkEv(ptr noundef nonnull align 8 dereferenceable(104) %3) #18
  %7 = load ptr, ptr @_ZN22SystemDictionaryShared15_dumptime_tableE, align 8
  %8 = tail call noundef ptr @_ZN24DumpTimeSharedClassTable8get_infoEP13InstanceKlass(ptr noundef nonnull align 8 dereferenceable(127124) %7, ptr noundef %0) #18
  tail call void @_ZN5Mutex6unlockEv(ptr noundef nonnull align 8 dereferenceable(104) %3) #18
  br label %_ZN22SystemDictionaryShared8get_infoEP13InstanceKlass.exit

_ZN22SystemDictionaryShared8get_infoEP13InstanceKlass.exit: ; preds = %_ZN11MutexLockerC2EP5MutexNS0_18SafepointCheckFlagE.exit.thread.i, %6
  %9 = phi ptr [ %5, %_ZN11MutexLockerC2EP5MutexNS0_18SafepointCheckFlagE.exit.thread.i ], [ %8, %6 ]
  %10 = getelementptr inbounds i8, ptr %9, i64 28
  store i32 %1, ptr %10, align 4
  ret void
}